(lp0
V0365929
p1
aV0118589
p2
aV0452598
p3
aV0285462
p4
aV0881891
p5
aV0160484
p6
aV0241760
p7
aV0318081
p8
aV0364970
p9
aV0252028
p10
aV0259288
p11
aV0430912
p12
aV0297753
p13
aV0463379
p14
aV0244709
p15
aV0462395
p16
aV0486028
p17
aV0763304
p18
aV0403016
p19
aV0283160
p20
aV0421729
p21
aV0180052
p22
aV0790604
p23
aV0466342
p24
aV0359517
p25
aV0362165
p26
aV0326856
p27
aV0477392
p28
aV0844671
p29
aV0191074
p30
aV0380277
p31
aV0403703
p32
aV0804492
p33
aV0432291
p34
aV0291502
p35
aV0250310
p36
aV0443295
p37
aV0261289
p38
aV0452625
p39
aV0380623
p40
aV0411061
p41
aV0388419
p42
aV0335121
p43
aV0490084
p44
aV0398842
p45
aV0390080
p46
aV0367188
p47
aV0356443
p48
aV0305632
p49
aV0327643
p50
aV0460780
p51
aV0383222
p52
aV0218619
p53
aV0433412
p54
aV0332712
p55
aV0891592
p56
aV0273517
p57
aV0317676
p58
aV0383060
p59
aV0186975
p60
aV1151922
p61
aV0308353
p62
aV0462229
p63
aV0327247
p64
aV0446676
p65
aV1045655
p66
aV0800003
p67
aV0231448
p68
aV0475944
p69
aV0295254
p70
aV0163983
p71
aV0246894
p72
aV0185183
p73
aV1073498
p74
aV0193560
p75
aV0163676
p76
aV1213644
p77
aV0799949
p78
aV0473024
p79
aV0297162
p80
aV0295427
p81
aV0315297
p82
aV0462244
p83
aV0369226
p84
aV1183251
p85
aV0315431
p86
aV0250468
p87
aV0338249
p88
aV1001562
p89
aV0780595
p90
aV0199290
p91
aV0489282
p92
aV0270846
p93
aV0388183
p94
aV0255477
p95
aV0479968
p96
aV0308208
p97
a.