(lp0
I222258
aI79185
aI22293
aI188571
aNaI21882
aI42218
aI17874
aI66946
aI163907
aI73247
aI27380
aI23943
aI10805
aI27214
aI64945
aI47296
aI12500
aI13841
aI33278
aI12715
aI31947
aI10587
aI37530
aI580
aI14443
aI24929
aI11825
aI20443
aI20196
aI28165
aI11895
aI38084
aI41817
aNaI51036
aI34636
aI8010
aI13888
aI13644
aI27465
aI41769
aI11982
aI161158
aI31395
aI9624
aI18009
aI33783
aI30114
aI19326
aI19286
aI2307
aI27993
aI26441
aI36929
aI32308
aI39411
aI19287
aI13313
aI42848
aI81367
aI32305
aI42185
aI46286
aI27455
aI47816
aI16225
aI145838
aI184835
aI10550
aI14128
aI41915
aI10599
aI47354
aI14365
aI76842
aI31117
aI13371
aI25061
aI12242
aI46268
aI14933
aI13417
aI3602
aI9695
aI9948
aI17275
aI16392
aI23327
aI24499
aI6933
aI14833
aI53529
aI20323
aI14220
aI14555
aI58197
aI13827
aI16325
aI20177
aI22681
aI17627
aI17532
aI37190
aI41345
aI45839
aI38642
aI45662
aI35221
aI44646
aI49852
aI59435
aI74415
aI67911
aI80210
aI80177
aI84907
aI65344
aI68878
aI65762
aI166392
aI84345
aI58559
aI118690
aI101791
aI124972
aI72358
aI130774
aI119457
aI59963
aI112130
aI223605
aI156268
aI225703
aI196830
aI158864
aI286971
aI188313
aI207768
aI256601
aI257521
aI259018
a.